target datalayout = "e-m:e-p270:32:32-p271:32:32-p272:64:64-i64:64-i128:128-f80:128-n8:16:32:64-S128"
target triple = "x86_64-pc-linux-gnu"

%struct.redisObject = type { i32, i32, ptr }
%struct.setTypeIterator = type { ptr, i32, i32, ptr, ptr }

@.str.1 = private unnamed_addr constant [8 x i8] c"t_set.c\00", align 1
@.str.3 = private unnamed_addr constant [21 x i8] c"Unknown set encoding\00", align 1

; Function Attrs: nounwind uwtable
define dso_local ptr @setTypeInitIterator(ptr noundef %0) #0 {
  %2 = alloca ptr, align 8
  %3 = alloca ptr, align 8
  store ptr %0, ptr %2, align 8, !tbaa !41
  call void @llvm.lifetime.start.p0(i64 8, ptr %3) #10
  %4 = call noalias ptr @zmalloc(i64 noundef 32) #12
  store ptr %4, ptr %3, align 8, !tbaa !47
  %5 = load ptr, ptr %2, align 8, !tbaa !41
  %6 = load ptr, ptr %3, align 8, !tbaa !47
  %7 = getelementptr inbounds nuw %struct.setTypeIterator, ptr %6, i32 0, i32 0
  store ptr %5, ptr %7, align 8, !tbaa !56
  %8 = load ptr, ptr %2, align 8, !tbaa !41
  %9 = load i32, ptr %8, align 8
  %10 = lshr i32 %9, 4
  %11 = and i32 %10, 15
  %12 = load ptr, ptr %3, align 8, !tbaa !47
  %13 = getelementptr inbounds nuw %struct.setTypeIterator, ptr %12, i32 0, i32 1
  store i32 %11, ptr %13, align 8, !tbaa !59
  %14 = load ptr, ptr %3, align 8, !tbaa !47
  %15 = getelementptr inbounds nuw %struct.setTypeIterator, ptr %14, i32 0, i32 1
  %16 = load i32, ptr %15, align 8, !tbaa !59
  %17 = icmp eq i32 %16, 2
  br i1 %17, label %18, label %25

18:                                               ; preds = %1
  %19 = load ptr, ptr %2, align 8, !tbaa !41
  %20 = getelementptr inbounds nuw %struct.redisObject, ptr %19, i32 0, i32 2
  %21 = load ptr, ptr %20, align 8, !tbaa !43
  %22 = call ptr @dictGetIterator(ptr noundef %21)
  %23 = load ptr, ptr %3, align 8, !tbaa !47
  %24 = getelementptr inbounds nuw %struct.setTypeIterator, ptr %23, i32 0, i32 3
  store ptr %22, ptr %24, align 8, !tbaa !60
  br label %44

25:                                               ; preds = %1
  %26 = load ptr, ptr %3, align 8, !tbaa !47
  %27 = getelementptr inbounds nuw %struct.setTypeIterator, ptr %26, i32 0, i32 1
  %28 = load i32, ptr %27, align 8, !tbaa !59
  %29 = icmp eq i32 %28, 6
  br i1 %29, label %30, label %33

30:                                               ; preds = %25
  %31 = load ptr, ptr %3, align 8, !tbaa !47
  %32 = getelementptr inbounds nuw %struct.setTypeIterator, ptr %31, i32 0, i32 2
  store i32 0, ptr %32, align 4, !tbaa !61
  br label %43

33:                                               ; preds = %25
  %34 = load ptr, ptr %3, align 8, !tbaa !47
  %35 = getelementptr inbounds nuw %struct.setTypeIterator, ptr %34, i32 0, i32 1
  %36 = load i32, ptr %35, align 8, !tbaa !59
  %37 = icmp eq i32 %36, 11
  br i1 %37, label %38, label %41

38:                                               ; preds = %33
  %39 = load ptr, ptr %3, align 8, !tbaa !47
  %40 = getelementptr inbounds nuw %struct.setTypeIterator, ptr %39, i32 0, i32 4
  store ptr null, ptr %40, align 8, !tbaa !62
  br label %42

41:                                               ; preds = %33
  call void (ptr, i32, ptr, ...) @_serverPanic(ptr noundef @.str.1, i32 noundef 320, ptr noundef @.str.3)
  call void @abort() #11
  unreachable

42:                                               ; preds = %38
  br label %43

43:                                               ; preds = %42, %30
  br label %44

44:                                               ; preds = %43, %18
  %45 = load ptr, ptr %3, align 8, !tbaa !47
  call void @llvm.lifetime.end.p0(i64 8, ptr %3) #10
  ret ptr %45
}