; Function Attrs: nounwind uwtable
define dso_local noalias noundef ptr @setTypeInitIterator(ptr noundef %0) local_unnamed_addr #0 {
  %2 = tail call noalias dereferenceable_or_null(32) ptr @zmalloc(i64 noundef 32) #12
  store ptr %0, ptr %2, align 8, !tbaa !41
  %3 = load i32, ptr %0, align 8
  %4 = lshr i32 %3, 4
  %5 = and i32 %4, 15
  %6 = getelementptr inbounds nuw i8, ptr %2, i64 8
  store i32 %5, ptr %6, align 8, !tbaa !45
  switch i32 %5, label %16 [
    i32 2, label %7
    i32 6, label %12
    i32 11, label %14
  ]

7:                                                ; preds = %1
  %8 = getelementptr inbounds nuw i8, ptr %0, i64 8
  %9 = load ptr, ptr %8, align 8, !tbaa !38
  %10 = tail call ptr @dictGetIterator(ptr noundef %9) #10
  %11 = getelementptr inbounds nuw i8, ptr %2, i64 16
  store ptr %10, ptr %11, align 8, !tbaa !46
  br label %17

12:                                               ; preds = %1
  %13 = getelementptr inbounds nuw i8, ptr %2, i64 12
  store i32 0, ptr %13, align 4, !tbaa !47
  br label %17

14:                                               ; preds = %1
  %15 = getelementptr inbounds nuw i8, ptr %2, i64 24
  store ptr null, ptr %15, align 8, !tbaa !48
  br label %17

16:                                               ; preds = %1
  tail call void (ptr, i32, ptr, ...) @_serverPanic(ptr noundef nonnull @.str.1, i32 noundef 320, ptr noundef nonnull @.str.3) #10
  tail call void @abort() #11
  unreachable

17:                                               ; preds = %12, %14, %7
  ret ptr %2
}